target datalayout = "e-m:e-p270:32:32-p271:32:32-p272:64:64-i64:64-i128:128-f80:128-n8:16:32:64-S128"
target triple = "x86_64-pc-linux-gnu"

%struct.IPpmd7 = type { ptr, ptr, ptr, ptr, ptr, ptr, ptr, ptr, ptr, ptr, ptr, ptr }
%struct.la_zstream = type { ptr, i64, i64, ptr, i64, i64, i32, ptr, i32, ptr, ptr, ptr }
%struct.ppmd_stream = type { i32, %struct.CPpmd7, %struct.CPpmd7z_RangeEnc, %struct.IByteOut, ptr, ptr, ptr, i64 }
%struct.CPpmd7 = type { ptr, ptr, ptr, i32, i32, i32, i32, i32, i32, i32, i32, i32, ptr, ptr, ptr, ptr, ptr, i32, [38 x i8], [128 x i8], [38 x i32], [256 x i8], [256 x i8], [256 x i8], %struct.CPpmd_See, [25 x [16 x %struct.CPpmd_See]], [128 x [64 x i16]] }
%struct.CPpmd_See = type { i16, i8, i8 }
%struct.CPpmd7z_RangeEnc = type { i64, i32, i8, i64, ptr }
%struct.IByteOut = type { ptr, ptr }

@__archive_ppmd7_functions = external constant %struct.IPpmd7, align 8

; Function Attrs: nounwind uwtable
define internal i32 @compression_end_ppmd(ptr noundef %0, ptr noundef %1) #0 {
  %3 = alloca ptr, align 8
  %4 = alloca ptr, align 8
  %5 = alloca ptr, align 8
  store ptr %0, ptr %3, align 8
  store ptr %1, ptr %4, align 8
  %6 = load ptr, ptr %4, align 8
  %7 = getelementptr inbounds %struct.la_zstream, ptr %6, i32 0, i32 9
  %8 = load ptr, ptr %7, align 8
  store ptr %8, ptr %5, align 8
  %9 = getelementptr inbounds %struct.IPpmd7, ptr @__archive_ppmd7_functions, i32 0, i32 2
  %10 = load ptr, ptr %9, align 8
  %11 = load ptr, ptr %5, align 8
  %12 = getelementptr inbounds %struct.ppmd_stream, ptr %11, i32 0, i32 1
  call void %10(ptr noundef %12)
  %13 = load ptr, ptr %5, align 8
  %14 = getelementptr inbounds %struct.ppmd_stream, ptr %13, i32 0, i32 4
  %15 = load ptr, ptr %14, align 8
  call void @free(ptr noundef %15) #10
  %16 = load ptr, ptr %5, align 8
  call void @free(ptr noundef %16) #10
  %17 = load ptr, ptr %4, align 8
  %18 = getelementptr inbounds %struct.la_zstream, ptr %17, i32 0, i32 9
  store ptr null, ptr %18, align 8
  %19 = load ptr, ptr %4, align 8
  %20 = getelementptr inbounds %struct.la_zstream, ptr %19, i32 0, i32 8
  store i32 0, ptr %20, align 8
  ret i32 0
}