; Function Attrs: nounwind uwtable
define internal noundef i32 @compression_end_ppmd(ptr readnone captures(none) %0, ptr noundef captures(none) initializes((64, 68)) %1) #0 {
  %3 = getelementptr inbounds nuw i8, ptr %1, i64 72
  %4 = load ptr, ptr %3, align 8
  %5 = load ptr, ptr getelementptr inbounds nuw (i8, ptr @__archive_ppmd7_functions, i64 16), align 8
  %6 = getelementptr inbounds nuw i8, ptr %4, i64 8
  tail call void %5(ptr noundef nonnull %6) #18
  %7 = getelementptr inbounds nuw i8, ptr %4, i64 19240
  %8 = load ptr, ptr %7, align 8
  tail call void @free(ptr noundef %8) #18
  tail call void @free(ptr noundef %4) #18
  store ptr null, ptr %3, align 8
  %9 = getelementptr inbounds nuw i8, ptr %1, i64 64
  store i32 0, ptr %9, align 8
  ret i32 0
}